target datalayout = "e-m:e-p270:32:32-p271:32:32-p272:64:64-i64:64-i128:128-f80:128-n8:16:32:64-S128"
target triple = "x86_64-pc-linux-gnu"

%"class.cv::Rect_" = type { i32, i32, i32, i32 }
%"class.cv::detail::Timelapser" = type { ptr, %"class.cv::UMat", %"class.cv::Rect_" }
%"class.cv::UMat" = type { i32, i32, i32, i32, ptr, i32, ptr, i64, %"struct.cv::MatSize", %"struct.cv::MatStep" }
%"struct.cv::MatSize" = type { ptr }
%"struct.cv::MatStep" = type { ptr, [2 x i64] }
%"class.cv::Point_" = type { i32, i32 }

; Function Attrs: mustprogress nounwind uwtable
define linkonce_odr hidden noundef zeroext i1 @_ZNK2cv5Rect_IiE8containsERKNS_6Point_IiEE(ptr noundef nonnull align 4 dereferenceable(16) %0, ptr noundef nonnull align 4 dereferenceable(8) %1) #5 comdat align 2 {
  %3 = alloca ptr, align 8
  %4 = alloca ptr, align 8
  store ptr %0, ptr %3, align 8
  store ptr %1, ptr %4, align 8
  %5 = load ptr, ptr %3, align 8
  %6 = getelementptr inbounds %"class.cv::Rect_", ptr %5, i32 0, i32 0
  %7 = load i32, ptr %6, align 4
  %8 = load ptr, ptr %4, align 8
  %9 = getelementptr inbounds %"class.cv::Point_", ptr %8, i32 0, i32 0
  %10 = load i32, ptr %9, align 4
  %11 = icmp sle i32 %7, %10
  br i1 %11, label %12, label %39

12:                                               ; preds = %2
  %13 = load ptr, ptr %4, align 8
  %14 = getelementptr inbounds %"class.cv::Point_", ptr %13, i32 0, i32 0
  %15 = load i32, ptr %14, align 4
  %16 = getelementptr inbounds %"class.cv::Rect_", ptr %5, i32 0, i32 0
  %17 = load i32, ptr %16, align 4
  %18 = getelementptr inbounds %"class.cv::Rect_", ptr %5, i32 0, i32 2
  %19 = load i32, ptr %18, align 4
  %20 = add nsw i32 %17, %19
  %21 = icmp slt i32 %15, %20
  br i1 %21, label %22, label %39

22:                                               ; preds = %12
  %23 = getelementptr inbounds %"class.cv::Rect_", ptr %5, i32 0, i32 1
  %24 = load i32, ptr %23, align 4
  %25 = load ptr, ptr %4, align 8
  %26 = getelementptr inbounds %"class.cv::Point_", ptr %25, i32 0, i32 1
  %27 = load i32, ptr %26, align 4
  %28 = icmp sle i32 %24, %27
  br i1 %28, label %29, label %39

29:                                               ; preds = %22
  %30 = load ptr, ptr %4, align 8
  %31 = getelementptr inbounds %"class.cv::Point_", ptr %30, i32 0, i32 1
  %32 = load i32, ptr %31, align 4
  %33 = getelementptr inbounds %"class.cv::Rect_", ptr %5, i32 0, i32 1
  %34 = load i32, ptr %33, align 4
  %35 = getelementptr inbounds %"class.cv::Rect_", ptr %5, i32 0, i32 3
  %36 = load i32, ptr %35, align 4
  %37 = add nsw i32 %34, %36
  %38 = icmp slt i32 %32, %37
  br label %39

39:                                               ; preds = %29, %22, %12, %2
  %40 = phi i1 [ false, %22 ], [ false, %12 ], [ false, %2 ], [ %38, %29 ]
  ret i1 %40
}

; Function Attrs: mustprogress uwtable
define noundef zeroext i1 @_ZN2cv6detail10Timelapser10test_pointENS_6Point_IiEE(ptr noundef nonnull align 8 dereferenceable(104) %0, i64 %1) unnamed_addr #4 align 2 {
  %3 = alloca %"class.cv::Point_", align 4
  %4 = alloca ptr, align 8
  store i64 %1, ptr %3, align 4
  store ptr %0, ptr %4, align 8
  %5 = load ptr, ptr %4, align 8
  %6 = getelementptr inbounds %"class.cv::detail::Timelapser", ptr %5, i32 0, i32 2
  %7 = call noundef zeroext i1 @_ZNK2cv5Rect_IiE8containsERKNS_6Point_IiEE(ptr noundef nonnull align 4 dereferenceable(16) %6, ptr noundef nonnull align 4 dereferenceable(8) %3)
  ret i1 %7
}