; Function Attrs: mustprogress nofree norecurse nosync nounwind willreturn memory(argmem: read) uwtable
define noundef zeroext i1 @_ZN2cv6detail10Timelapser10test_pointENS_6Point_IiEE(ptr nocapture noundef nonnull readonly align 8 dereferenceable(104) %0, i64 %1) unnamed_addr #7 align 2 {
  %.sroa.0.0.extract.trunc = trunc i64 %1 to i32
  %.sroa.2.0.extract.shift = lshr i64 %1, 32
  %.sroa.2.0.extract.trunc = trunc nuw i64 %.sroa.2.0.extract.shift to i32
  %3 = getelementptr inbounds i8, ptr %0, i64 88
  %4 = load i32, ptr %3, align 8
  %.not.i = icmp sgt i32 %4, %.sroa.0.0.extract.trunc
  br i1 %.not.i, label %_ZNK2cv5Rect_IiE8containsERKNS_6Point_IiEE.exit, label %5

5:                                                ; preds = %2
  %6 = getelementptr inbounds i8, ptr %0, i64 96
  %7 = load i32, ptr %6, align 8
  %8 = add nsw i32 %7, %4
  %9 = icmp sgt i32 %8, %.sroa.0.0.extract.trunc
  br i1 %9, label %10, label %_ZNK2cv5Rect_IiE8containsERKNS_6Point_IiEE.exit

10:                                               ; preds = %5
  %11 = getelementptr inbounds i8, ptr %0, i64 92
  %12 = load i32, ptr %11, align 4
  %.not8.i = icmp sgt i32 %12, %.sroa.2.0.extract.trunc
  br i1 %.not8.i, label %_ZNK2cv5Rect_IiE8containsERKNS_6Point_IiEE.exit, label %13

13:                                               ; preds = %10
  %14 = getelementptr inbounds i8, ptr %0, i64 100
  %15 = load i32, ptr %14, align 4
  %16 = add nsw i32 %15, %12
  %17 = icmp sgt i32 %16, %.sroa.2.0.extract.trunc
  br label %_ZNK2cv5Rect_IiE8containsERKNS_6Point_IiEE.exit

_ZNK2cv5Rect_IiE8containsERKNS_6Point_IiEE.exit:  ; preds = %2, %5, %10, %13
  %18 = phi i1 [ false, %10 ], [ false, %5 ], [ false, %2 ], [ %17, %13 ]
  ret i1 %18
}